; Function Attrs: mustprogress nounwind uwtable
define hidden void @_ZN6hermes6parser10JSONParserC2ERNS0_11JSONFactoryESt10unique_ptrIN4llvh12MemoryBufferESt14default_deleteIS6_EERNS_18SourceErrorManagerEb(ptr noundef nonnull align 8 dereferenceable(1144) %this, ptr noundef nonnull align 8 dereferenceable(120) %factory, ptr nocapture noundef %input, ptr noundef nonnull align 8 dereferenceable(464) %sm, i1 noundef zeroext %convertSurrogates) unnamed_addr #1 align 2 {
entry:
  %agg.tmp = alloca %"class.std::unique_ptr.27", align 8
  store ptr %factory, ptr %this, align 8
  %lexer_ = getelementptr inbounds i8, ptr %this, i64 8
  %0 = load i64, ptr %input, align 8
  store i64 %0, ptr %agg.tmp, align 8
  store ptr null, ptr %input, align 8
  %1 = load ptr, ptr %this, align 8
  %2 = load ptr, ptr %1, align 8
  %strTab_.i = getelementptr inbounds i8, ptr %1, i64 16
  %3 = load ptr, ptr %strTab_.i, align 8
  call void @_ZN6hermes6parser7JSLexerC1ESt10unique_ptrIN4llvh12MemoryBufferESt14default_deleteIS4_EERNS_18SourceErrorManagerERNS_28BacktrackingBumpPtrAllocatorEPNS_11StringTableEbb(ptr noundef nonnull align 8 dereferenceable(1128) %lexer_, ptr noundef nonnull %agg.tmp, ptr noundef nonnull align 8 dereferenceable(464) %sm, ptr noundef nonnull align 8 dereferenceable(32) %2, ptr noundef nonnull %3, i1 noundef zeroext true, i1 noundef zeroext %convertSurrogates) #18
  %4 = load ptr, ptr %agg.tmp, align 8
  %cmp.not.i = icmp eq ptr %4, null
  br i1 %cmp.not.i, label %_ZNSt10unique_ptrIN4llvh12MemoryBufferESt14default_deleteIS1_EED2Ev.exit, label %_ZNKSt14default_deleteIN4llvh12MemoryBufferEEclEPS1_.exit.i

_ZNKSt14default_deleteIN4llvh12MemoryBufferEEclEPS1_.exit.i: ; preds = %entry
  %vtable.i.i = load ptr, ptr %4, align 8
  %vfn.i.i = getelementptr inbounds i8, ptr %vtable.i.i, i64 8
  %5 = load ptr, ptr %vfn.i.i, align 8
  call void %5(ptr noundef nonnull align 8 dereferenceable(24) %4) #18
  br label %_ZNSt10unique_ptrIN4llvh12MemoryBufferESt14default_deleteIS1_EED2Ev.exit

_ZNSt10unique_ptrIN4llvh12MemoryBufferESt14default_deleteIS1_EED2Ev.exit: ; preds = %entry, %_ZNKSt14default_deleteIN4llvh12MemoryBufferEEclEPS1_.exit.i
  %sm_ = getelementptr inbounds i8, ptr %this, i64 1136
  store ptr %sm, ptr %sm_, align 8
  ret void
}